target datalayout = "e-m:e-p270:32:32-p271:32:32-p272:64:64-i64:64-i128:128-f80:128-n8:16:32:64-S128"
target triple = "x86_64-pc-linux-gnu"

; Function Attrs: nounwind uwtable
define i64 @_testfunc_callback_q_qf(i64 noundef %0, ptr noundef %1) #0 {
  %3 = alloca i64, align 8
  %4 = alloca ptr, align 8
  %5 = alloca i64, align 8
  store i64 %0, ptr %3, align 8, !tbaa !60
  store ptr %1, ptr %4, align 8, !tbaa !7
  call void @llvm.lifetime.start.p0(i64 8, ptr %5) #12
  store i64 0, ptr %5, align 8, !tbaa !60
  br label %6

6:                                                ; preds = %9, %2
  %7 = load i64, ptr %3, align 8, !tbaa !60
  %8 = icmp ne i64 %7, 0
  br i1 %8, label %9, label %17

9:                                                ; preds = %6
  %10 = load ptr, ptr %4, align 8, !tbaa !7
  %11 = load i64, ptr %3, align 8, !tbaa !60
  %12 = call i64 %10(i64 noundef %11)
  %13 = load i64, ptr %5, align 8, !tbaa !60
  %14 = add i64 %13, %12
  store i64 %14, ptr %5, align 8, !tbaa !60
  %15 = load i64, ptr %3, align 8, !tbaa !60
  %16 = sdiv i64 %15, 2
  store i64 %16, ptr %3, align 8, !tbaa !60
  br label %6, !llvm.loop !63

17:                                               ; preds = %6
  %18 = load i64, ptr %5, align 8, !tbaa !60
  call void @llvm.lifetime.end.p0(i64 8, ptr %5) #12
  ret i64 %18
}