; Function Attrs: nounwind uwtable
define i64 @_testfunc_callback_q_qf(i64 noundef %0, ptr noundef readonly captures(none) %1) local_unnamed_addr #0 {
  %.not6 = icmp eq i64 %0, 0
  br i1 %.not6, label %._crit_edge, label %.lr.ph

.lr.ph:                                           ; preds = %2, %.lr.ph
  %.08 = phi i64 [ %4, %.lr.ph ], [ 0, %2 ]
  %.057 = phi i64 [ %5, %.lr.ph ], [ %0, %2 ]
  %3 = tail call i64 %1(i64 noundef %.057) #34
  %4 = add i64 %3, %.08
  %5 = sdiv i64 %.057, 2
  %.057.off = add i64 %.057, 1
  %.not = icmp ult i64 %.057.off, 3
  br i1 %.not, label %._crit_edge, label %.lr.ph, !llvm.loop !54

._crit_edge:                                      ; preds = %.lr.ph, %2
  %.0.lcssa = phi i64 [ 0, %2 ], [ %4, %.lr.ph ]
  ret i64 %.0.lcssa
}